target datalayout = "e-m:e-p270:32:32-p271:32:32-p272:64:64-i64:64-i128:128-f80:128-n8:16:32:64-S128"
target triple = "x86_64-pc-linux-gnu"

%struct.Type_ = type { i32, ptr, ptr, ptr, %union.anon, ptr, ptr, %union.anon.1 }
%union.anon = type { ptr }
%union.anon.1 = type { %struct.TypeFunction }
%struct.TypeFunction = type { ptr, ptr, ptr }
%union.SourceSpan = type { i64 }
%struct.Decl_ = type { ptr, ptr, %union.SourceSpan, i64, %union.anon.3, i32, %union.anon.4, i64, ptr, ptr, ptr, %union.anon.5 }
%union.anon.3 = type { ptr }
%union.anon.4 = type { i16 }
%union.anon.5 = type { %struct.FuncDecl }
%struct.FuncDecl = type { i32, [4 x i8], %struct.Signature_, i32, i32, %union.anon.12 }
%struct.Signature_ = type <{ %struct.CalleeAttributes, i16, i8, i32, i32, [4 x i8], ptr }>
%struct.CalleeAttributes = type { i8 }
%union.anon.12 = type { %struct.anon.13 }
%struct.anon.13 = type { i16, %union.anon.14 }
%union.anon.14 = type { ptr }

; Function Attrs: nounwind uwtable
define dso_local ptr @type_new_func(ptr noundef %0, ptr noundef %1) #0 {
  %3 = alloca i32, align 4
  %4 = alloca ptr, align 8
  %5 = alloca ptr, align 8
  %6 = alloca ptr, align 8
  %7 = alloca ptr, align 8
  %8 = alloca ptr, align 8
  store ptr %0, ptr %6, align 8
  store ptr %1, ptr %7, align 8
  %9 = load ptr, ptr %6, align 8
  %10 = getelementptr inbounds %struct.Decl_, ptr %9, i32 0, i32 0
  %11 = load ptr, ptr %10, align 8
  store i32 25, ptr %3, align 4
  store ptr %11, ptr %4, align 8
  %12 = call ptr @calloc_arena(i64 noundef 80) #9
  store ptr %12, ptr %5, align 8
  %13 = load i32, ptr %3, align 4
  %14 = load ptr, ptr %5, align 8
  store i32 %13, ptr %14, align 8
  %15 = load ptr, ptr %4, align 8
  %16 = load ptr, ptr %5, align 8
  %17 = getelementptr inbounds %struct.Type_, ptr %16, i32 0, i32 2
  store ptr %15, ptr %17, align 8
  %18 = load ptr, ptr %5, align 8
  call void @global_context_add_type(ptr noundef %18) #9
  %19 = load ptr, ptr %5, align 8
  store ptr %19, ptr %8, align 8
  %20 = load ptr, ptr %8, align 8
  %21 = load ptr, ptr %8, align 8
  %22 = getelementptr inbounds %struct.Type_, ptr %21, i32 0, i32 1
  store ptr %20, ptr %22, align 8
  %23 = load ptr, ptr %7, align 8
  %24 = load ptr, ptr %8, align 8
  %25 = getelementptr inbounds %struct.Type_, ptr %24, i32 0, i32 7
  %26 = getelementptr inbounds %struct.TypeFunction, ptr %25, i32 0, i32 1
  store ptr %23, ptr %26, align 8
  %27 = load ptr, ptr %6, align 8
  %28 = load ptr, ptr %8, align 8
  %29 = getelementptr inbounds %struct.Type_, ptr %28, i32 0, i32 7
  %30 = getelementptr inbounds %struct.TypeFunction, ptr %29, i32 0, i32 0
  store ptr %27, ptr %30, align 8
  %31 = load ptr, ptr %8, align 8
  ret ptr %31
}