; Function Attrs: nounwind uwtable
define dso_local noundef ptr @type_new_func(ptr noundef %0, ptr noundef %1) local_unnamed_addr #0 {
  %3 = load ptr, ptr %0, align 8
  %4 = tail call ptr @calloc_arena(i64 noundef 80) #14
  store i32 25, ptr %4, align 8
  %5 = getelementptr inbounds i8, ptr %4, i64 16
  store ptr %3, ptr %5, align 8
  tail call void @global_context_add_type(ptr noundef nonnull %4) #14
  %6 = getelementptr inbounds i8, ptr %4, i64 8
  store ptr %4, ptr %6, align 8
  %7 = getelementptr inbounds i8, ptr %4, i64 56
  %8 = getelementptr inbounds i8, ptr %4, i64 64
  store ptr %1, ptr %8, align 8
  store ptr %0, ptr %7, align 8
  ret ptr %4
}